target datalayout = "e-m:e-p270:32:32-p271:32:32-p272:64:64-i64:64-i128:128-f80:128-n8:16:32:64-S128"
target triple = "x86_64-unknown-linux-gnu"

%"class.google::LogMessageVoidify" = type { i8 }
%"class.google::LogMessageFatal" = type { %"class.google::LogMessage" }
%"class.google::LogMessage" = type { ptr, ptr, %"struct.google::LogMessageTime" }
%"struct.google::LogMessageTime" = type { %struct.tm, i64, i32, i64 }
%struct.tm = type { i32, i32, i32, i32, i32, i32, i32, i32, i32, i64, ptr }
%"class.proxygen::HTTP2PriorityQueue::Node" = type { %"class.proxygen::HTTP2PriorityQueueBase::BaseNode", %"class.folly::HHWheelTimerBase<std::chrono::duration<long, std::ratio<1, 1000>>>::Callback", ptr, ptr, i64, i16, ptr, i8, i8, i64, i64, %"class.std::__cxx11::list", %"struct.std::_List_iterator", %"class.boost::intrusive::list_member_hook", %"class.boost::intrusive::list" }
%"class.proxygen::HTTP2PriorityQueueBase::BaseNode" = type { ptr }
%"class.folly::HHWheelTimerBase<std::chrono::duration<long, std::ratio<1, 1000>>>::Callback" = type { ptr, %"class.boost::intrusive::list_base_hook", ptr, %"class.std::chrono::time_point", i32, %"class.std::shared_ptr" }
%"class.boost::intrusive::list_base_hook" = type { %"class.boost::intrusive::generic_hook" }
%"class.boost::intrusive::generic_hook" = type { %"struct.boost::intrusive::node_holder" }
%"struct.boost::intrusive::node_holder" = type { %"struct.boost::intrusive::list_node" }
%"struct.boost::intrusive::list_node" = type { ptr, ptr }
%"class.std::chrono::time_point" = type { %"class.std::chrono::duration" }
%"class.std::chrono::duration" = type { i64 }
%"class.std::shared_ptr" = type { %"class.std::__shared_ptr" }
%"class.std::__shared_ptr" = type { ptr, %"class.std::__shared_count" }
%"class.std::__shared_count" = type { ptr }
%"class.std::__cxx11::list" = type { %"class.std::__cxx11::_List_base" }
%"class.std::__cxx11::_List_base" = type { %"struct.std::__cxx11::_List_base<std::unique_ptr<proxygen::HTTP2PriorityQueue::Node>, std::allocator<std::unique_ptr<proxygen::HTTP2PriorityQueue::Node>>>::_List_impl" }
%"struct.std::__cxx11::_List_base<std::unique_ptr<proxygen::HTTP2PriorityQueue::Node>, std::allocator<std::unique_ptr<proxygen::HTTP2PriorityQueue::Node>>>::_List_impl" = type { %"struct.std::__detail::_List_node_header" }
%"struct.std::__detail::_List_node_header" = type { %"struct.std::__detail::_List_node_base", i64 }
%"struct.std::__detail::_List_node_base" = type { ptr, ptr }
%"struct.std::_List_iterator" = type { ptr }
%"class.boost::intrusive::list_member_hook" = type { %"class.boost::intrusive::generic_hook.0" }
%"class.boost::intrusive::generic_hook.0" = type { %"struct.boost::intrusive::list_node" }
%"class.boost::intrusive::list" = type { %"class.boost::intrusive::list_impl" }
%"class.boost::intrusive::list_impl" = type { %"struct.boost::intrusive::list_impl<boost::intrusive::mhtraits<proxygen::HTTP2PriorityQueue::Node, boost::intrusive::list_member_hook<boost::intrusive::link_mode<boost::intrusive::auto_unlink>>, &proxygen::HTTP2PriorityQueue::Node::enqueuedHook_>, unsigned long, false, void>::data_t" }
%"struct.boost::intrusive::list_impl<boost::intrusive::mhtraits<proxygen::HTTP2PriorityQueue::Node, boost::intrusive::list_member_hook<boost::intrusive::link_mode<boost::intrusive::auto_unlink>>, &proxygen::HTTP2PriorityQueue::Node::enqueuedHook_>, unsigned long, false, void>::data_t" = type { %"struct.boost::intrusive::list_impl<boost::intrusive::mhtraits<proxygen::HTTP2PriorityQueue::Node, boost::intrusive::list_member_hook<boost::intrusive::link_mode<boost::intrusive::auto_unlink>>, &proxygen::HTTP2PriorityQueue::Node::enqueuedHook_>, unsigned long, false, void>::root_plus_size" }
%"struct.boost::intrusive::list_impl<boost::intrusive::mhtraits<proxygen::HTTP2PriorityQueue::Node, boost::intrusive::list_member_hook<boost::intrusive::link_mode<boost::intrusive::auto_unlink>>, &proxygen::HTTP2PriorityQueue::Node::enqueuedHook_>, unsigned long, false, void>::root_plus_size" = type { %"struct.boost::intrusive::detail::default_header_holder" }
%"struct.boost::intrusive::detail::default_header_holder" = type { %"struct.boost::intrusive::list_node" }

@.str = private unnamed_addr constant [144 x i8] c"generated/home/dtcxzyw/WorkSpace/Projects/compilers/llvm-opt-benchmark/bench/proxygen/proxygen/proxygen/lib/http/session/HTTP2PriorityQueue.cpp\00", align 1
@.str.7 = private unnamed_addr constant [48 x i8] c"Check failed: !node->enqueuedHook_.is_linked() \00", align 1

; Function Attrs: noreturn nounwind uwtable
define linkonce_odr hidden void @__clang_call_terminate(ptr noundef %0) #7 comdat {
  %2 = call ptr @__cxa_begin_catch(ptr %0) #3
  call void @_ZSt9terminatev() #26
  unreachable
}

; Function Attrs: mustprogress nounwind uwtable
define linkonce_odr void @_ZN5boost9intrusive24circular_list_algorithmsINS0_16list_node_traitsIPvEEE11link_beforeEPNS0_9list_nodeIS3_EES8_(ptr noundef %nxt_node, ptr noundef %this_node) #4 comdat align 2 {
entry:
  %n.addr.i7 = alloca ptr, align 8
  %n.addr.i4 = alloca ptr, align 8
  %prev.addr.i5 = alloca ptr, align 8
  %n.addr.i3 = alloca ptr, align 8
  %prev.addr.i = alloca ptr, align 8
  %n.addr.i1 = alloca ptr, align 8
  %next.addr.i2 = alloca ptr, align 8
  %n.addr.i = alloca ptr, align 8
  %next.addr.i = alloca ptr, align 8
  %nxt_node.addr = alloca ptr, align 8
  %this_node.addr = alloca ptr, align 8
  %prev = alloca ptr, align 8
  store ptr %nxt_node, ptr %nxt_node.addr, align 8
  store ptr %this_node, ptr %this_node.addr, align 8
  %0 = load ptr, ptr %nxt_node.addr, align 8
  store ptr %0, ptr %n.addr.i7, align 8
  %1 = load ptr, ptr %n.addr.i7, align 8
  %prev_.i8 = getelementptr inbounds %"struct.boost::intrusive::list_node", ptr %1, i32 0, i32 1
  %2 = load ptr, ptr %prev_.i8, align 8
  store ptr %2, ptr %prev, align 8
  %3 = load ptr, ptr %this_node.addr, align 8
  %4 = load ptr, ptr %prev, align 8
  store ptr %3, ptr %n.addr.i4, align 8
  store ptr %4, ptr %prev.addr.i5, align 8
  %5 = load ptr, ptr %prev.addr.i5, align 8
  %6 = load ptr, ptr %n.addr.i4, align 8
  %prev_.i6 = getelementptr inbounds %"struct.boost::intrusive::list_node", ptr %6, i32 0, i32 1
  store ptr %5, ptr %prev_.i6, align 8
  %7 = load ptr, ptr %this_node.addr, align 8
  %8 = load ptr, ptr %nxt_node.addr, align 8
  store ptr %7, ptr %n.addr.i1, align 8
  store ptr %8, ptr %next.addr.i2, align 8
  %9 = load ptr, ptr %next.addr.i2, align 8
  %10 = load ptr, ptr %n.addr.i1, align 8
  store ptr %9, ptr %10, align 8
  %11 = load ptr, ptr %nxt_node.addr, align 8
  %12 = load ptr, ptr %this_node.addr, align 8
  store ptr %11, ptr %n.addr.i3, align 8
  store ptr %12, ptr %prev.addr.i, align 8
  %13 = load ptr, ptr %prev.addr.i, align 8
  %14 = load ptr, ptr %n.addr.i3, align 8
  %prev_.i = getelementptr inbounds %"struct.boost::intrusive::list_node", ptr %14, i32 0, i32 1
  store ptr %13, ptr %prev_.i, align 8
  %15 = load ptr, ptr %prev, align 8
  %16 = load ptr, ptr %this_node.addr, align 8
  store ptr %15, ptr %n.addr.i, align 8
  store ptr %16, ptr %next.addr.i, align 8
  %17 = load ptr, ptr %next.addr.i, align 8
  %18 = load ptr, ptr %n.addr.i, align 8
  store ptr %17, ptr %18, align 8
  ret void
}

; Function Attrs: mustprogress nounwind uwtable
define linkonce_odr void @_ZN5boost9intrusive9list_implINS0_8mhtraitsIN8proxygen18HTTP2PriorityQueue4NodeENS0_16list_member_hookIJNS0_9link_modeILNS0_14link_mode_typeE2EEEEEEXadL_ZNS5_13enqueuedHook_EEEEEmLb0EvE9push_backERS5_(ptr noundef nonnull align 8 dereferenceable(16) %this, ptr noundef nonnull align 8 dereferenceable(200) %value) #4 comdat align 2 personality ptr @__gxx_personality_v0 {
entry:
  %this.addr.i15 = alloca ptr, align 8
  %v.addr.i.i13 = alloca ptr, align 8
  %r.addr.i.i14 = alloca ptr, align 8
  %value.addr.i = alloca ptr, align 8
  %v.addr.i.i = alloca ptr, align 8
  %r.addr.i.i = alloca ptr, align 8
  %this.addr.i11 = alloca ptr, align 8
  %this.addr.i9 = alloca ptr, align 8
  %this.addr.i7 = alloca ptr, align 8
  %this.addr.i = alloca ptr, align 8
  %this.addr = alloca ptr, align 8
  %value.addr = alloca ptr, align 8
  %to_insert = alloca ptr, align 8
  store ptr %this, ptr %this.addr, align 8
  store ptr %value, ptr %value.addr, align 8
  %this1 = load ptr, ptr %this.addr, align 8
  store ptr %this1, ptr %this.addr.i7, align 8
  %0 = load ptr, ptr %value.addr, align 8
  store ptr %0, ptr %value.addr.i, align 8
  %1 = load ptr, ptr %value.addr.i, align 8
  %memptr.offset.i = getelementptr inbounds i8, ptr %1, i64 168
  store ptr %memptr.offset.i, ptr %r.addr.i.i14, align 8
  %2 = load ptr, ptr %r.addr.i.i14, align 8
  store ptr %2, ptr %v.addr.i.i13, align 8
  %3 = load ptr, ptr %v.addr.i.i13, align 8
  br label %invoke.cont

invoke.cont:                                      ; preds = %entry
  store ptr %3, ptr %to_insert, align 8
  store ptr %this1, ptr %this.addr.i, align 8
  %this1.i = load ptr, ptr %this.addr.i, align 8
  store ptr %this1.i, ptr %this.addr.i11, align 8
  %this1.i12 = load ptr, ptr %this.addr.i11, align 8
  store ptr %this1.i12, ptr %r.addr.i.i, align 8
  %4 = load ptr, ptr %r.addr.i.i, align 8
  store ptr %4, ptr %v.addr.i.i, align 8
  %5 = load ptr, ptr %v.addr.i.i, align 8
  br label %invoke.cont3

invoke.cont3:                                     ; preds = %invoke.cont
  %6 = load ptr, ptr %to_insert, align 8
  call void @_ZN5boost9intrusive24circular_list_algorithmsINS0_16list_node_traitsIPvEEE11link_beforeEPNS0_9list_nodeIS3_EES8_(ptr noundef %5, ptr noundef %6) #3
  store ptr %this1, ptr %this.addr.i9, align 8
  %this1.i10 = load ptr, ptr %this.addr.i9, align 8
  store ptr %this1.i10, ptr %this.addr.i15, align 8
  br label %invoke.cont6

invoke.cont6:                                     ; preds = %invoke.cont3
  ret void

terminate.lpad:                                   ; No predecessors!
  %7 = landingpad { ptr, i32 }
          catch ptr null
  %8 = extractvalue { ptr, i32 } %7, 0
  call void @__clang_call_terminate(ptr %8) #26
  unreachable
}

; Function Attrs: mustprogress nounwind uwtable
define linkonce_odr void @_ZN6google17LogMessageVoidifyanERSo(ptr noundef nonnull align 1 dereferenceable(1) %this, ptr noundef nonnull align 8 dereferenceable(8) %0) #4 comdat align 2 {
entry:
  %this.addr = alloca ptr, align 8
  %.addr = alloca ptr, align 8
  store ptr %this, ptr %this.addr, align 8
  store ptr %0, ptr %.addr, align 8
  ret void
}

; Function Attrs: mustprogress nounwind uwtable
define linkonce_odr void @_ZN6google17LogMessageVoidifyC2Ev(ptr noundef nonnull align 1 dereferenceable(1) %this) unnamed_addr #4 comdat align 2 {
entry:
  %this.addr = alloca ptr, align 8
  store ptr %this, ptr %this.addr, align 8
  ret void
}

; Function Attrs: mustprogress nounwind uwtable
define linkonce_odr noundef zeroext i1 @_ZN5boost9intrusive24circular_list_algorithmsINS0_16list_node_traitsIPvEEE6uniqueEPKNS0_9list_nodeIS3_EE(ptr noundef %this_node) #4 comdat align 2 {
entry:
  %n.addr.i = alloca ptr, align 8
  %this_node.addr = alloca ptr, align 8
  %next = alloca ptr, align 8
  store ptr %this_node, ptr %this_node.addr, align 8
  %0 = load ptr, ptr %this_node.addr, align 8
  store ptr %0, ptr %n.addr.i, align 8
  %1 = load ptr, ptr %n.addr.i, align 8
  %2 = load ptr, ptr %1, align 8
  store ptr %2, ptr %next, align 8
  %3 = load ptr, ptr %next, align 8
  %tobool = icmp ne ptr %3, null
  br i1 %tobool, label %lor.rhs, label %lor.end

lor.rhs:                                          ; preds = %entry
  %4 = load ptr, ptr %next, align 8
  %5 = load ptr, ptr %this_node.addr, align 8
  %cmp = icmp eq ptr %4, %5
  br label %lor.end

lor.end:                                          ; preds = %lor.rhs, %entry
  %6 = phi i1 [ true, %entry ], [ %cmp, %lor.rhs ]
  ret i1 %6
}

; Function Attrs: mustprogress uwtable
define void @_ZN8proxygen18HTTP2PriorityQueue4Node16addEnqueuedChildEPS1_(ptr noundef nonnull align 8 dereferenceable(200) %this, ptr noundef %node) #5 align 2 personality ptr @__gxx_personality_v0 {
entry:
  %v.addr.i = alloca ptr, align 8
  %r.addr.i = alloca ptr, align 8
  %this.addr.i12 = alloca ptr, align 8
  %this.addr.i = alloca ptr, align 8
  %this.addr = alloca ptr, align 8
  %node.addr = alloca ptr, align 8
  %ref.tmp = alloca %"class.google::LogMessageVoidify", align 1
  %ref.tmp3 = alloca %"class.google::LogMessageFatal", align 8
  %cleanup.cond = alloca i1, align 1
  %exn.slot = alloca ptr, align 8
  %ehselector.slot = alloca i32, align 4
  store ptr %this, ptr %this.addr, align 8
  store ptr %node, ptr %node.addr, align 8
  %this1 = load ptr, ptr %this.addr, align 8
  %0 = load ptr, ptr %node.addr, align 8
  %enqueuedHook_ = getelementptr inbounds %"class.proxygen::HTTP2PriorityQueue::Node", ptr %0, i32 0, i32 13
  store ptr %enqueuedHook_, ptr %this.addr.i, align 8
  %this1.i = load ptr, ptr %this.addr.i, align 8
  store ptr %this1.i, ptr %this.addr.i12, align 8
  %this1.i13 = load ptr, ptr %this.addr.i12, align 8
  store ptr %this1.i13, ptr %r.addr.i, align 8
  %1 = load ptr, ptr %r.addr.i, align 8
  store ptr %1, ptr %v.addr.i, align 8
  %2 = load ptr, ptr %v.addr.i, align 8
  %call2.i = call noundef zeroext i1 @_ZN5boost9intrusive24circular_list_algorithmsINS0_16list_node_traitsIPvEEE6uniqueEPKNS0_9list_nodeIS3_EE(ptr noundef %2) #3
  %lnot.i = xor i1 %call2.i, true
  %lnot = xor i1 %lnot.i, true
  %lnot2 = xor i1 %lnot, true
  store i1 false, ptr %cleanup.cond, align 1
  br i1 %lnot2, label %cond.false, label %cond.true

cond.true:                                        ; preds = %entry
  br label %cond.end

cond.false:                                       ; preds = %entry
  call void @_ZN6google17LogMessageVoidifyC2Ev(ptr noundef nonnull align 1 dereferenceable(1) %ref.tmp)
  call void @_ZN6google15LogMessageFatalC1EPKci(ptr noundef nonnull align 8 dereferenceable(96) %ref.tmp3, ptr noundef @.str, i32 noundef 167)
  store i1 true, ptr %cleanup.cond, align 1
  %call4 = invoke noundef nonnull align 8 dereferenceable(8) ptr @_ZN6google10LogMessage6streamEv(ptr noundef nonnull align 8 dereferenceable(96) %ref.tmp3)
          to label %invoke.cont unwind label %lpad

invoke.cont:                                      ; preds = %cond.false
  %call6 = invoke noundef nonnull align 8 dereferenceable(8) ptr @_ZStlsISt11char_traitsIcEERSt13basic_ostreamIcT_ES5_PKc(ptr noundef nonnull align 8 dereferenceable(8) %call4, ptr noundef @.str.7)
          to label %invoke.cont5 unwind label %lpad

invoke.cont5:                                     ; preds = %invoke.cont
  invoke void @_ZN6google17LogMessageVoidifyanERSo(ptr noundef nonnull align 1 dereferenceable(1) %ref.tmp, ptr noundef nonnull align 8 dereferenceable(8) %call6)
          to label %invoke.cont7 unwind label %lpad

invoke.cont7:                                     ; preds = %invoke.cont5
  br label %cond.end

cond.end:                                         ; preds = %invoke.cont7, %cond.true
  %cleanup.is_active = load i1, ptr %cleanup.cond, align 1
  br i1 %cleanup.is_active, label %cleanup.action, label %cleanup.done

cleanup.action:                                   ; preds = %cond.end
  call void @_ZN6google15LogMessageFatalD1Ev(ptr noundef nonnull align 8 dereferenceable(96) %ref.tmp3) #26
  unreachable

lpad:                                             ; preds = %invoke.cont5, %invoke.cont, %cond.false
  %3 = landingpad { ptr, i32 }
          cleanup
  %4 = extractvalue { ptr, i32 } %3, 0
  store ptr %4, ptr %exn.slot, align 8
  %5 = extractvalue { ptr, i32 } %3, 1
  store i32 %5, ptr %ehselector.slot, align 4
  %cleanup.is_active8 = load i1, ptr %cleanup.cond, align 1
  br i1 %cleanup.is_active8, label %cleanup.action9, label %cleanup.done10

6:                                                ; No predecessors!
  br label %cleanup.done

cleanup.done:                                     ; preds = %6, %cond.end
  %enqueuedChildren_ = getelementptr inbounds %"class.proxygen::HTTP2PriorityQueue::Node", ptr %this1, i32 0, i32 14
  %7 = load ptr, ptr %node.addr, align 8
  call void @_ZN5boost9intrusive9list_implINS0_8mhtraitsIN8proxygen18HTTP2PriorityQueue4NodeENS0_16list_member_hookIJNS0_9link_modeILNS0_14link_mode_typeE2EEEEEEXadL_ZNS5_13enqueuedHook_EEEEEmLb0EvE9push_backERS5_(ptr noundef nonnull align 8 dereferenceable(16) %enqueuedChildren_, ptr noundef nonnull align 8 dereferenceable(200) %7) #3
  ret void

cleanup.action9:                                  ; preds = %lpad
  call void @_ZN6google15LogMessageFatalD1Ev(ptr noundef nonnull align 8 dereferenceable(96) %ref.tmp3) #26
  unreachable

8:                                                ; No predecessors!
  br label %cleanup.done10

cleanup.done10:                                   ; preds = %8, %lpad
  br label %eh.resume

eh.resume:                                        ; preds = %cleanup.done10
  %exn = load ptr, ptr %exn.slot, align 8
  %sel = load i32, ptr %ehselector.slot, align 4
  %lpad.val = insertvalue { ptr, i32 } poison, ptr %exn, 0
  %lpad.val11 = insertvalue { ptr, i32 } %lpad.val, i32 %sel, 1
  resume { ptr, i32 } %lpad.val11
}