; Function Attrs: mustprogress uwtable
define void @_ZN8proxygen18HTTP2PriorityQueue4Node16addEnqueuedChildEPS1_(ptr noundef nonnull align 8 dereferenceable(200) %this, ptr noundef %node) local_unnamed_addr #4 align 2 personality ptr @__gxx_personality_v0 {
entry:
  %ref.tmp3 = alloca %"class.google::LogMessageFatal", align 8
  %enqueuedHook_ = getelementptr inbounds i8, ptr %node, i64 168
  %0 = load ptr, ptr %enqueuedHook_, align 8
  %tobool.not.i = icmp eq ptr %0, null
  %cmp.i = icmp eq ptr %0, %enqueuedHook_
  %1 = or i1 %tobool.not.i, %cmp.i
  br i1 %1, label %cleanup.done, label %cond.false

cond.false:                                       ; preds = %entry
  call void @_ZN6google15LogMessageFatalC1EPKci(ptr noundef nonnull align 8 dereferenceable(96) %ref.tmp3, ptr noundef nonnull @.str, i32 noundef 167)
  %call4 = invoke noundef nonnull align 8 dereferenceable(8) ptr @_ZN6google10LogMessage6streamEv(ptr noundef nonnull align 8 dereferenceable(96) %ref.tmp3)
          to label %invoke.cont unwind label %lpad

invoke.cont:                                      ; preds = %cond.false
  %call6 = invoke noundef nonnull align 8 dereferenceable(8) ptr @_ZStlsISt11char_traitsIcEERSt13basic_ostreamIcT_ES5_PKc(ptr noundef nonnull align 8 dereferenceable(8) %call4, ptr noundef nonnull @.str.7)
          to label %cleanup.action unwind label %lpad

cleanup.action:                                   ; preds = %invoke.cont
  call void @_ZN6google15LogMessageFatalD1Ev(ptr noundef nonnull align 8 dereferenceable(96) %ref.tmp3) #30
  unreachable

lpad:                                             ; preds = %invoke.cont, %cond.false
  %2 = landingpad { ptr, i32 }
          cleanup
  call void @_ZN6google15LogMessageFatalD1Ev(ptr noundef nonnull align 8 dereferenceable(96) %ref.tmp3) #30
  unreachable

cleanup.done:                                     ; preds = %entry
  %enqueuedChildren_ = getelementptr inbounds i8, ptr %this, i64 184
  %prev_.i8.i.i = getelementptr inbounds i8, ptr %this, i64 192
  %3 = load ptr, ptr %prev_.i8.i.i, align 8
  %prev_.i6.i.i = getelementptr inbounds i8, ptr %node, i64 176
  store ptr %3, ptr %prev_.i6.i.i, align 8
  store ptr %enqueuedChildren_, ptr %enqueuedHook_, align 8
  store ptr %enqueuedHook_, ptr %prev_.i8.i.i, align 8
  store ptr %enqueuedHook_, ptr %3, align 8
  ret void
}